target datalayout = "e-m:e-p270:32:32-p271:32:32-p272:64:64-i64:64-i128:128-f80:128-n8:16:32:64-S128"
target triple = "x86_64-pc-linux-gnu"

@H5_libinit_g = global i8 0, align 1
@H5_libterm_g = global i8 0, align 1
@.str.30 = private unnamed_addr constant [96 x i8] c"generated/home/dtcxzyw/WorkSpace/Projects/compilers/llvm-opt-benchmark/bench/hdf5/hdf5/src/H5.c\00", align 1
@H5E_FUNC_g = external global i64, align 8
@H5E_CANTINIT_g = external global i64, align 8
@.str.66 = private unnamed_addr constant [30 x i8] c"library initialization failed\00", align 1
@__func__.H5open = private unnamed_addr constant [7 x i8] c"H5open\00", align 1

; Function Attrs: nounwind uwtable
define i32 @H5open() #0 {
  %1 = alloca i32, align 4
  %2 = alloca i8, align 1
  store i32 0, ptr %1, align 4
  store i8 0, ptr %2, align 1
  %3 = load i8, ptr @H5_libinit_g, align 1
  %4 = trunc i8 %3 to i1
  br i1 %4, label %9, label %5

5:                                                ; preds = %0
  %6 = load i8, ptr @H5_libterm_g, align 1
  %7 = trunc i8 %6 to i1
  %8 = xor i1 %7, true
  br label %9

9:                                                ; preds = %5, %0
  %10 = phi i1 [ false, %0 ], [ %8, %5 ]
  %11 = xor i1 %10, true
  %12 = xor i1 %11, true
  %13 = zext i1 %12 to i32
  %14 = sext i32 %13 to i64
  %15 = icmp ne i64 %14, 0
  br i1 %15, label %16, label %40

16:                                               ; preds = %9
  %17 = call i32 @H5_init_library()
  %18 = icmp slt i32 %17, 0
  %19 = xor i1 %18, true
  %20 = xor i1 %19, true
  %21 = zext i1 %20 to i32
  %22 = sext i32 %21 to i64
  %23 = icmp ne i64 %22, 0
  br i1 %23, label %24, label %39

24:                                               ; preds = %16
  br label %25

25:                                               ; preds = %24
  br label %26

26:                                               ; preds = %25
  br label %27

27:                                               ; preds = %26
  %28 = load i64, ptr @H5E_FUNC_g, align 8
  %29 = load i64, ptr @H5E_CANTINIT_g, align 8
  %30 = call i32 (ptr, ptr, i32, i64, i64, ptr, ...) @H5E_printf_stack(ptr noundef @.str.30, ptr noundef @__func__.H5open, i32 noundef 1018, i64 noundef %28, i64 noundef %29, ptr noundef @.str.66)
  br label %31

31:                                               ; preds = %27
  store i8 1, ptr %2, align 1
  %32 = load i8, ptr %2, align 1
  %33 = trunc i8 %32 to i1
  %34 = zext i1 %33 to i8
  store i8 %34, ptr %2, align 1
  br label %35

35:                                               ; preds = %31
  br label %36

36:                                               ; preds = %35
  store i32 -1, ptr %1, align 4
  br label %41

37:                                               ; No predecessors!
  br label %38

38:                                               ; preds = %37
  br label %39

39:                                               ; preds = %38, %16
  br label %40

40:                                               ; preds = %39, %9
  br label %41

41:                                               ; preds = %40, %36
  %42 = load i8, ptr %2, align 1
  %43 = trunc i8 %42 to i1
  %44 = xor i1 %43, true
  %45 = xor i1 %44, true
  %46 = zext i1 %45 to i32
  %47 = sext i32 %46 to i64
  %48 = icmp ne i64 %47, 0
  br i1 %48, label %49, label %51

49:                                               ; preds = %41
  %50 = call i32 @H5E_dump_api_stack()
  br label %51

51:                                               ; preds = %49, %41
  %52 = load i32, ptr %1, align 4
  ret i32 %52
}