; Function Attrs: nounwind uwtable
define range(i32 -1, 1) i32 @H5open() local_unnamed_addr #0 {
  %1 = load i8, ptr @H5_libinit_g, align 1
  %2 = trunc i8 %1 to i1
  %3 = load i8, ptr @H5_libterm_g, align 1
  %4 = trunc i8 %3 to i1
  %5 = select i1 %2, i1 true, i1 %4
  br i1 %5, label %.thread, label %6

6:                                                ; preds = %0
  %7 = tail call i32 @H5_init_library()
  %8 = icmp slt i32 %7, 0
  br i1 %8, label %9, label %.thread

9:                                                ; preds = %6
  %10 = load i64, ptr @H5E_FUNC_g, align 8
  %11 = load i64, ptr @H5E_CANTINIT_g, align 8
  %12 = tail call i32 (ptr, ptr, i32, i64, i64, ptr, ...) @H5E_printf_stack(ptr noundef nonnull @.str.30, ptr noundef nonnull @__func__.H5open, i32 noundef 1018, i64 noundef %10, i64 noundef %11, ptr noundef nonnull @.str.66) #21
  %13 = tail call i32 @H5E_dump_api_stack() #21
  br label %.thread

.thread:                                          ; preds = %0, %6, %9
  %.036 = phi i32 [ -1, %9 ], [ 0, %6 ], [ 0, %0 ]
  ret i32 %.036
}